; ModuleID = 'source-C-CXX/2/413.c'
source_filename = "source-C-CXX/2/413.c"
target datalayout = "e-m:e-p270:32:32-p271:32:32-p272:64:64-i64:64-f80:128-n8:16:32:64-S128"
target triple = "x86_64-pc-linux-gnu"

@.str = private unnamed_addr constant [6 x i8] c"%d %d\00", align 1
@.str.1 = private unnamed_addr constant [3 x i8] c"%d\00", align 1
@.str.2 = private unnamed_addr constant [4 x i8] c"yes\00", align 1
@.str.3 = private unnamed_addr constant [3 x i8] c"no\00", align 1

; Function Attrs: nofree nounwind sspstrong uwtable
define dso_local i32 @main() local_unnamed_addr #0 {
  %1 = alloca i32, align 4
  %2 = alloca i32, align 4
  %3 = alloca [1000 x i32], align 16
  %4 = bitcast i32* %1 to i8*
  call void @llvm.lifetime.start.p0i8(i64 4, i8* nonnull %4) #3
  %5 = bitcast i32* %2 to i8*
  call void @llvm.lifetime.start.p0i8(i64 4, i8* nonnull %5) #3
  %6 = bitcast [1000 x i32]* %3 to i8*
  call void @llvm.lifetime.start.p0i8(i64 4000, i8* nonnull %6) #3
  %7 = call i32 (i8*, ...) @__isoc99_scanf(i8* getelementptr inbounds ([6 x i8], [6 x i8]* @.str, i64 0, i64 0), i32* nonnull %1, i32* nonnull %2)
  %8 = load i32, i32* %1, align 4, !tbaa !5
  %9 = icmp sgt i32 %8, 0
  br i1 %9, label %36, label %45

10:                                               ; preds = %36
  %11 = add i32 %41, -1
  %12 = load i32, i32* %2, align 4
  %13 = icmp sgt i32 %41, 1
  br i1 %13, label %14, label %45

14:                                               ; preds = %10
  %15 = zext i32 %11 to i64
  %16 = zext i32 %11 to i64
  %17 = zext i32 %41 to i64
  br label %18

18:                                               ; preds = %14, %32
  %19 = phi i64 [ 0, %14 ], [ %33, %32 ]
  %20 = phi i1 [ true, %14 ], [ %34, %32 ]
  %21 = getelementptr inbounds [1000 x i32], [1000 x i32]* %3, i64 0, i64 %19
  %22 = load i32, i32* %21, align 4, !tbaa !5
  br label %25

23:                                               ; preds = %25
  %24 = icmp eq i64 %31, %17
  br i1 %24, label %32, label %25, !llvm.loop !9

25:                                               ; preds = %18, %23
  %26 = phi i64 [ 0, %18 ], [ %31, %23 ]
  %27 = getelementptr inbounds [1000 x i32], [1000 x i32]* %3, i64 0, i64 %26
  %28 = load i32, i32* %27, align 4, !tbaa !5
  %29 = add nsw i32 %28, %22
  %30 = icmp eq i32 %12, %29
  %31 = add nuw nsw i64 %26, 1
  br i1 %30, label %44, label %23

32:                                               ; preds = %23
  %33 = add nuw nsw i64 %19, 1
  %34 = icmp ult i64 %33, %15
  %35 = icmp eq i64 %33, %16
  br i1 %35, label %45, label %18, !llvm.loop !11

36:                                               ; preds = %0, %36
  %37 = phi i64 [ %40, %36 ], [ 0, %0 ]
  %38 = getelementptr inbounds [1000 x i32], [1000 x i32]* %3, i64 0, i64 %37
  %39 = call i32 (i8*, ...) @__isoc99_scanf(i8* getelementptr inbounds ([3 x i8], [3 x i8]* @.str.1, i64 0, i64 0), i32* nonnull %38)
  %40 = add nuw nsw i64 %37, 1
  %41 = load i32, i32* %1, align 4, !tbaa !5
  %42 = sext i32 %41 to i64
  %43 = icmp slt i64 %40, %42
  br i1 %43, label %36, label %10, !llvm.loop !12

44:                                               ; preds = %25
  br i1 %20, label %46, label %45

45:                                               ; preds = %32, %0, %10, %44
  br label %46

46:                                               ; preds = %44, %45
  %47 = phi i8* [ getelementptr inbounds ([3 x i8], [3 x i8]* @.str.3, i64 0, i64 0), %45 ], [ getelementptr inbounds ([4 x i8], [4 x i8]* @.str.2, i64 0, i64 0), %44 ]
  %48 = call i32 (i8*, ...) @printf(i8* nonnull dereferenceable(1) %47)
  call void @llvm.lifetime.end.p0i8(i64 4000, i8* nonnull %6) #3
  call void @llvm.lifetime.end.p0i8(i64 4, i8* nonnull %5) #3
  call void @llvm.lifetime.end.p0i8(i64 4, i8* nonnull %4) #3
  ret i32 0
}

; Function Attrs: argmemonly mustprogress nofree nosync nounwind willreturn
declare void @llvm.lifetime.start.p0i8(i64 immarg, i8* nocapture) #1

; Function Attrs: nofree nounwind
declare noundef i32 @__isoc99_scanf(i8* nocapture noundef readonly, ...) local_unnamed_addr #2

; Function Attrs: nofree nounwind
declare noundef i32 @printf(i8* nocapture noundef readonly, ...) local_unnamed_addr #2

; Function Attrs: argmemonly mustprogress nofree nosync nounwind willreturn
declare void @llvm.lifetime.end.p0i8(i64 immarg, i8* nocapture) #1


!llvm.module.flags = !{!0, !1, !2, !3}
!llvm.ident = !{!4}

!0 = !{i32 1, !"wchar_size", i32 4}
!1 = !{i32 7, !"PIC Level", i32 2}
!2 = !{i32 7, !"PIE Level", i32 2}
!3 = !{i32 7, !"uwtable", i32 1}
!4 = !{!"clang version 13.0.0"}
!5 = !{!6, !6, i64 0}
!6 = !{!"int", !7, i64 0}
!7 = !{!"omnipotent char", !8, i64 0}
!8 = !{!"Simple C/C++ TBAA"}
!9 = distinct !{!9, !10}
!10 = !{!"llvm.loop.mustprogress"}
!11 = distinct !{!11, !10}
!12 = distinct !{!12, !10}
